target datalayout = "e-m:e-p270:32:32-p271:32:32-p272:64:64-i64:64-i128:128-f80:128-n8:16:32:64-S128"
target triple = "x86_64-pc-linux-gnu"

%"class.std::__cxx11::basic_string" = type { %"struct.std::__cxx11::basic_string<char>::_Alloc_hider", i64, %union.anon }
%"struct.std::__cxx11::basic_string<char>::_Alloc_hider" = type { ptr }
%union.anon = type { i64, [8 x i8] }
%"class.std::allocator" = type { i8 }
%"class.cv::Mat" = type { i32, i32, i32, i32, ptr, ptr, ptr, ptr, ptr, ptr, %"struct.cv::MatSize", %"struct.cv::MatStep" }
%"struct.cv::MatSize" = type { ptr }
%"struct.cv::MatStep" = type { ptr, [2 x i64] }
%"class.cv::Vec" = type { %"class.cv::Matx" }
%"class.cv::Matx" = type { [2 x float] }
%"class.cv::MatExpr" = type { ptr, i32, %"class.cv::Mat", %"class.cv::Mat", %"class.cv::Mat", double, double, %"class.cv::Scalar_" }
%"class.cv::Scalar_" = type { %"class.cv::Vec.0" }
%"class.cv::Vec.0" = type { %"class.cv::Matx.1" }
%"class.cv::Matx.1" = type { [4 x double] }

@.str.18 = private unnamed_addr constant [5 x i8] c"PIEH\00", align 1

; Function Attrs: mustprogress nounwind uwtable
define linkonce_odr hidden void @_ZN2cv4MatxIfLi2ELi1EEC2Ev(ptr noundef nonnull align 4 dereferenceable(8) %0) unnamed_addr #7 comdat align 2 {
  %2 = alloca ptr, align 8
  %3 = alloca i32, align 4
  store ptr %0, ptr %2, align 8
  %4 = load ptr, ptr %2, align 8
  store i32 0, ptr %3, align 4
  br label %5

5:                                                ; preds = %13, %1
  %6 = load i32, ptr %3, align 4
  %7 = icmp slt i32 %6, 2
  br i1 %7, label %8, label %16

8:                                                ; preds = %5
  %9 = getelementptr inbounds %"class.cv::Matx", ptr %4, i32 0, i32 0
  %10 = load i32, ptr %3, align 4
  %11 = sext i32 %10 to i64
  %12 = getelementptr inbounds [2 x float], ptr %9, i64 0, i64 %11
  store float 0.000000e+00, ptr %12, align 4
  br label %13

13:                                               ; preds = %8
  %14 = load i32, ptr %3, align 4
  %15 = add nsw i32 %14, 1
  store i32 %15, ptr %3, align 4
  br label %5, !llvm.loop !13

16:                                               ; preds = %5
  ret void
}

; Function Attrs: mustprogress nounwind uwtable
define linkonce_odr dso_local noundef zeroext i1 @_ZSteqIcSt11char_traitsIcESaIcEEbRKNSt7__cxx1112basic_stringIT_T0_T1_EEPKS5_(ptr noundef nonnull align 8 dereferenceable(32) %0, ptr noundef %1) #7 comdat {
  %3 = alloca ptr, align 8
  %4 = alloca ptr, align 8
  store ptr %0, ptr %3, align 8
  store ptr %1, ptr %4, align 8
  %5 = load ptr, ptr %3, align 8
  %6 = load ptr, ptr %4, align 8
  %7 = call noundef i32 @_ZNKSt7__cxx1112basic_stringIcSt11char_traitsIcESaIcEE7compareEPKc(ptr noundef nonnull align 8 dereferenceable(32) %5, ptr noundef %6) #3
  %8 = icmp eq i32 %7, 0
  ret i1 %8
}

; Function Attrs: mustprogress nounwind uwtable
define linkonce_odr hidden noundef nonnull align 4 dereferenceable(8) ptr @_ZN2cv3Mat2atINS_3VecIfLi2EEEEERT_ii(ptr noundef nonnull align 8 dereferenceable(96) %0, i32 noundef %1, i32 noundef %2) #7 comdat align 2 {
  %4 = alloca ptr, align 8
  %5 = alloca i32, align 4
  %6 = alloca i32, align 4
  store ptr %0, ptr %4, align 8
  store i32 %1, ptr %5, align 4
  store i32 %2, ptr %6, align 4
  %7 = load ptr, ptr %4, align 8
  %8 = getelementptr inbounds %"class.cv::Mat", ptr %7, i32 0, i32 4
  %9 = load ptr, ptr %8, align 8
  %10 = getelementptr inbounds %"class.cv::Mat", ptr %7, i32 0, i32 11
  %11 = getelementptr inbounds %"struct.cv::MatStep", ptr %10, i32 0, i32 0
  %12 = load ptr, ptr %11, align 8
  %13 = getelementptr inbounds i64, ptr %12, i64 0
  %14 = load i64, ptr %13, align 8
  %15 = load i32, ptr %5, align 4
  %16 = sext i32 %15 to i64
  %17 = mul i64 %14, %16
  %18 = getelementptr inbounds i8, ptr %9, i64 %17
  %19 = load i32, ptr %6, align 4
  %20 = sext i32 %19 to i64
  %21 = getelementptr inbounds %"class.cv::Vec", ptr %18, i64 %20
  ret ptr %21
}

; Function Attrs: mustprogress nounwind uwtable
define linkonce_odr hidden noundef nonnull align 4 dereferenceable(4) ptr @_ZN2cv3VecIfLi2EEixEi(ptr noundef nonnull align 4 dereferenceable(8) %0, i32 noundef %1) #7 comdat align 2 {
  %3 = alloca ptr, align 8
  %4 = alloca i32, align 4
  store ptr %0, ptr %3, align 8
  store i32 %1, ptr %4, align 4
  %5 = load ptr, ptr %3, align 8
  %6 = getelementptr inbounds %"class.cv::Matx", ptr %5, i32 0, i32 0
  %7 = load i32, ptr %4, align 4
  %8 = sext i32 %7 to i64
  %9 = getelementptr inbounds [2 x float], ptr %6, i64 0, i64 %8
  ret ptr %9
}

; Function Attrs: mustprogress uwtable
define linkonce_odr hidden void @_ZN2cv3VecIfLi2EEC2Ev(ptr noundef nonnull align 4 dereferenceable(8) %0) unnamed_addr #5 comdat align 2 {
  %2 = alloca ptr, align 8
  store ptr %0, ptr %2, align 8
  %3 = load ptr, ptr %2, align 8
  call void @_ZN2cv4MatxIfLi2ELi1EEC2Ev(ptr noundef nonnull align 4 dereferenceable(8) %3)
  ret void
}

; Function Attrs: mustprogress uwtable
define linkonce_odr hidden noundef nonnull align 8 dereferenceable(96) ptr @_ZN2cv3MataSERKNS_7MatExprE(ptr noundef nonnull align 8 dereferenceable(96) %0, ptr noundef nonnull align 8 dereferenceable(352) %1) #5 comdat align 2 {
  %3 = alloca ptr, align 8
  %4 = alloca ptr, align 8
  store ptr %0, ptr %3, align 8
  store ptr %1, ptr %4, align 8
  %5 = load ptr, ptr %3, align 8
  %6 = load ptr, ptr %4, align 8
  %7 = getelementptr inbounds %"class.cv::MatExpr", ptr %6, i32 0, i32 0
  %8 = load ptr, ptr %7, align 8
  %9 = load ptr, ptr %4, align 8
  %10 = load ptr, ptr %8, align 8
  %11 = getelementptr inbounds ptr, ptr %10, i64 3
  %12 = load ptr, ptr %11, align 8
  call void %12(ptr noundef nonnull align 8 dereferenceable(8) %8, ptr noundef nonnull align 8 dereferenceable(352) %9, ptr noundef nonnull align 8 dereferenceable(96) %5, i32 noundef -1)
  ret ptr %5
}

; Function Attrs: mustprogress uwtable
define linkonce_odr dso_local noundef zeroext i1 @_ZStneIcSt11char_traitsIcESaIcEEbRKNSt7__cxx1112basic_stringIT_T0_T1_EEPKS5_(ptr noundef nonnull align 8 dereferenceable(32) %0, ptr noundef %1) #5 comdat {
  %3 = alloca ptr, align 8
  %4 = alloca ptr, align 8
  store ptr %0, ptr %3, align 8
  store ptr %1, ptr %4, align 8
  %5 = load ptr, ptr %3, align 8
  %6 = load ptr, ptr %4, align 8
  %7 = call noundef zeroext i1 @_ZSteqIcSt11char_traitsIcESaIcEEbRKNSt7__cxx1112basic_stringIT_T0_T1_EEPKS5_(ptr noundef nonnull align 8 dereferenceable(32) %5, ptr noundef %6)
  %8 = xor i1 %7, true
  ret i1 %8
}

; Function Attrs: mustprogress uwtable
define internal noundef zeroext i1 @_ZL23readOpticalFlowFromFileP8_IO_FILERN2cv3MatE(ptr noundef %0, ptr noundef nonnull align 8 dereferenceable(96) %1) #5 personality ptr @__gxx_personality_v0 {
  %3 = alloca i1, align 1
  %4 = alloca ptr, align 8
  %5 = alloca ptr, align 8
  %6 = alloca [5 x i8], align 1
  %7 = alloca %"class.std::__cxx11::basic_string", align 8
  %8 = alloca %"class.std::allocator", align 1
  %9 = alloca i1, align 1
  %10 = alloca ptr, align 8
  %11 = alloca i32, align 4
  %12 = alloca i1, align 1
  %13 = alloca i32, align 4
  %14 = alloca i32, align 4
  %15 = alloca %"class.cv::MatExpr", align 8
  %16 = alloca i32, align 4
  %17 = alloca i32, align 4
  %18 = alloca %"class.cv::Vec", align 4
  store ptr %0, ptr %4, align 8
  store ptr %1, ptr %5, align 8
  %19 = getelementptr inbounds [5 x i8], ptr %6, i64 0, i64 0
  %20 = load ptr, ptr %4, align 8
  %21 = call i64 @fread(ptr noundef %19, i64 noundef 1, i64 noundef 4, ptr noundef %20)
  %22 = icmp ult i64 %21, 4
  store i1 false, ptr %9, align 1
  store i1 false, ptr %12, align 1
  br i1 %22, label %23, label %28

23:                                               ; preds = %2
  %24 = getelementptr inbounds [5 x i8], ptr %6, i64 0, i64 0
  call void @_ZNSaIcEC1Ev(ptr noundef nonnull align 1 dereferenceable(1) %8) #3
  store i1 true, ptr %9, align 1
  invoke void @_ZNSt7__cxx1112basic_stringIcSt11char_traitsIcESaIcEEC1EPKcRKS3_(ptr noundef nonnull align 8 dereferenceable(32) %7, ptr noundef %24, ptr noundef nonnull align 1 dereferenceable(1) %8)
          to label %25 unwind label %37

25:                                               ; preds = %23
  store i1 true, ptr %12, align 1
  %26 = invoke noundef zeroext i1 @_ZStneIcSt11char_traitsIcESaIcEEbRKNSt7__cxx1112basic_stringIT_T0_T1_EEPKS5_(ptr noundef nonnull align 8 dereferenceable(32) %7, ptr noundef @.str.18)
          to label %27 unwind label %41

27:                                               ; preds = %25
  br label %28

28:                                               ; preds = %27, %2
  %29 = phi i1 [ false, %2 ], [ %26, %27 ]
  %30 = load i1, ptr %12, align 1
  br i1 %30, label %31, label %32

31:                                               ; preds = %28
  call void @_ZNSt7__cxx1112basic_stringIcSt11char_traitsIcESaIcEED1Ev(ptr noundef nonnull align 8 dereferenceable(32) %7) #3
  br label %32

32:                                               ; preds = %31, %28
  %33 = load i1, ptr %9, align 1
  br i1 %33, label %34, label %35

34:                                               ; preds = %32
  call void @_ZNSaIcED1Ev(ptr noundef nonnull align 1 dereferenceable(1) %8) #3
  br label %35

35:                                               ; preds = %34, %32
  br i1 %29, label %36, label %52

36:                                               ; preds = %35
  store i1 false, ptr %3, align 1
  br label %104

37:                                               ; preds = %23
  %38 = landingpad { ptr, i32 }
          cleanup
  %39 = extractvalue { ptr, i32 } %38, 0
  store ptr %39, ptr %10, align 8
  %40 = extractvalue { ptr, i32 } %38, 1
  store i32 %40, ptr %11, align 4
  br label %48

41:                                               ; preds = %25
  %42 = landingpad { ptr, i32 }
          cleanup
  %43 = extractvalue { ptr, i32 } %42, 0
  store ptr %43, ptr %10, align 8
  %44 = extractvalue { ptr, i32 } %42, 1
  store i32 %44, ptr %11, align 4
  %45 = load i1, ptr %12, align 1
  br i1 %45, label %46, label %47

46:                                               ; preds = %41
  call void @_ZNSt7__cxx1112basic_stringIcSt11char_traitsIcESaIcEED1Ev(ptr noundef nonnull align 8 dereferenceable(32) %7) #3
  br label %47

47:                                               ; preds = %46, %41
  br label %48

48:                                               ; preds = %47, %37
  %49 = load i1, ptr %9, align 1
  br i1 %49, label %50, label %51

50:                                               ; preds = %48
  call void @_ZNSaIcED1Ev(ptr noundef nonnull align 1 dereferenceable(1) %8) #3
  br label %51

51:                                               ; preds = %50, %48
  br label %106

52:                                               ; preds = %35
  %53 = load ptr, ptr %4, align 8
  %54 = call i64 @fread(ptr noundef %13, i64 noundef 4, i64 noundef 1, ptr noundef %53)
  %55 = icmp ne i64 %54, 1
  br i1 %55, label %60, label %56

56:                                               ; preds = %52
  %57 = load ptr, ptr %4, align 8
  %58 = call i64 @fread(ptr noundef %14, i64 noundef 4, i64 noundef 1, ptr noundef %57)
  %59 = icmp ne i64 %58, 1
  br i1 %59, label %60, label %61

60:                                               ; preds = %56, %52
  store i1 false, ptr %3, align 1
  br label %104

61:                                               ; preds = %56
  %62 = load i32, ptr %14, align 4
  %63 = load i32, ptr %13, align 4
  call void @_ZN2cv3Mat5zerosEiii(ptr dead_on_unwind writable sret(%"class.cv::MatExpr") align 8 %15, i32 noundef %62, i32 noundef %63, i32 noundef 13)
  %64 = load ptr, ptr %5, align 8
  %65 = invoke noundef nonnull align 8 dereferenceable(96) ptr @_ZN2cv3MataSERKNS_7MatExprE(ptr noundef nonnull align 8 dereferenceable(96) %64, ptr noundef nonnull align 8 dereferenceable(352) %15)
          to label %66 unwind label %87

66:                                               ; preds = %61
  call void @_ZN2cv7MatExprD2Ev(ptr noundef nonnull align 8 dereferenceable(352) %15) #3
  store i32 0, ptr %16, align 4
  br label %67

67:                                               ; preds = %100, %66
  %68 = load i32, ptr %16, align 4
  %69 = load i32, ptr %14, align 4
  %70 = icmp slt i32 %68, %69
  br i1 %70, label %71, label %103

71:                                               ; preds = %67
  store i32 0, ptr %17, align 4
  br label %72

72:                                               ; preds = %96, %71
  %73 = load i32, ptr %17, align 4
  %74 = load i32, ptr %13, align 4
  %75 = icmp slt i32 %73, %74
  br i1 %75, label %76, label %99

76:                                               ; preds = %72
  call void @_ZN2cv3VecIfLi2EEC2Ev(ptr noundef nonnull align 4 dereferenceable(8) %18)
  %77 = call noundef nonnull align 4 dereferenceable(4) ptr @_ZN2cv3VecIfLi2EEixEi(ptr noundef nonnull align 4 dereferenceable(8) %18, i32 noundef 0)
  %78 = load ptr, ptr %4, align 8
  %79 = call i64 @fread(ptr noundef %77, i64 noundef 4, i64 noundef 1, ptr noundef %78)
  %80 = icmp ne i64 %79, 1
  br i1 %80, label %86, label %81

81:                                               ; preds = %76
  %82 = call noundef nonnull align 4 dereferenceable(4) ptr @_ZN2cv3VecIfLi2EEixEi(ptr noundef nonnull align 4 dereferenceable(8) %18, i32 noundef 1)
  %83 = load ptr, ptr %4, align 8
  %84 = call i64 @fread(ptr noundef %82, i64 noundef 4, i64 noundef 1, ptr noundef %83)
  %85 = icmp ne i64 %84, 1
  br i1 %85, label %86, label %91

86:                                               ; preds = %81, %76
  store i1 false, ptr %3, align 1
  br label %104

87:                                               ; preds = %61
  %88 = landingpad { ptr, i32 }
          cleanup
  %89 = extractvalue { ptr, i32 } %88, 0
  store ptr %89, ptr %10, align 8
  %90 = extractvalue { ptr, i32 } %88, 1
  store i32 %90, ptr %11, align 4
  call void @_ZN2cv7MatExprD2Ev(ptr noundef nonnull align 8 dereferenceable(352) %15) #3
  br label %106

91:                                               ; preds = %81
  %92 = load ptr, ptr %5, align 8
  %93 = load i32, ptr %16, align 4
  %94 = load i32, ptr %17, align 4
  %95 = call noundef nonnull align 4 dereferenceable(8) ptr @_ZN2cv3Mat2atINS_3VecIfLi2EEEEERT_ii(ptr noundef nonnull align 8 dereferenceable(96) %92, i32 noundef %93, i32 noundef %94)
  call void @llvm.memcpy.p0.p0.i64(ptr align 4 %95, ptr align 4 %18, i64 8, i1 false)
  br label %96

96:                                               ; preds = %91
  %97 = load i32, ptr %17, align 4
  %98 = add nsw i32 %97, 1
  store i32 %98, ptr %17, align 4
  br label %72, !llvm.loop !9

99:                                               ; preds = %72
  br label %100

100:                                              ; preds = %99
  %101 = load i32, ptr %16, align 4
  %102 = add nsw i32 %101, 1
  store i32 %102, ptr %16, align 4
  br label %67, !llvm.loop !10

103:                                              ; preds = %67
  store i1 true, ptr %3, align 1
  br label %104

104:                                              ; preds = %103, %86, %60, %36
  %105 = load i1, ptr %3, align 1
  ret i1 %105

106:                                              ; preds = %87, %51
  %107 = load ptr, ptr %10, align 8
  %108 = load i32, ptr %11, align 4
  %109 = insertvalue { ptr, i32 } poison, ptr %107, 0
  %110 = insertvalue { ptr, i32 } %109, i32 %108, 1
  resume { ptr, i32 } %110
}