; Function Attrs: mustprogress norecurse uwtable
define internal fastcc noundef zeroext i1 @_ZL23readOpticalFlowFromFileP8_IO_FILERN2cv3MatE(ptr nocapture noundef %0, ptr noundef nonnull align 8 dereferenceable(96) %1) unnamed_addr #3 personality ptr @__gxx_personality_v0 {
  %3 = alloca [5 x i8], align 1
  %4 = alloca %"class.std::__cxx11::basic_string", align 8
  %5 = alloca %"class.std::allocator", align 1
  %6 = alloca i32, align 4
  %7 = alloca i32, align 4
  %8 = alloca %"class.cv::MatExpr", align 8
  %9 = alloca %"class.cv::Vec", align 8
  %10 = call i64 @fread(ptr noundef nonnull %3, i64 noundef 1, i64 noundef 4, ptr noundef %0)
  %11 = icmp ult i64 %10, 4
  br i1 %11, label %12, label %.critedge.thread

12:                                               ; preds = %2
  call void @_ZNSaIcEC1Ev(ptr noundef nonnull align 1 dereferenceable(1) %5) #13
  invoke void @_ZNSt7__cxx1112basic_stringIcSt11char_traitsIcESaIcEEC1EPKcRKS3_(ptr noundef nonnull align 8 dereferenceable(32) %4, ptr noundef nonnull %3, ptr noundef nonnull align 1 dereferenceable(1) %5)
          to label %.critedge unwind label %14

.critedge:                                        ; preds = %12
  %13 = call noundef i32 @_ZNKSt7__cxx1112basic_stringIcSt11char_traitsIcESaIcEE7compareEPKc(ptr noundef nonnull align 8 dereferenceable(32) %4, ptr noundef nonnull @.str.18) #13
  %.not32 = icmp eq i32 %13, 0
  call void @_ZNSt7__cxx1112basic_stringIcSt11char_traitsIcESaIcEED1Ev(ptr noundef nonnull align 8 dereferenceable(32) %4) #13
  call void @_ZNSaIcED1Ev(ptr noundef nonnull align 1 dereferenceable(1) %5) #13
  br i1 %.not32, label %.critedge.thread, label %.loopexit

14:                                               ; preds = %12
  %15 = landingpad { ptr, i32 }
          cleanup
  call void @_ZNSaIcED1Ev(ptr noundef nonnull align 1 dereferenceable(1) %5) #13
  br label %48

.critedge.thread:                                 ; preds = %2, %.critedge
  %16 = call i64 @fread(ptr noundef nonnull %6, i64 noundef 4, i64 noundef 1, ptr noundef %0)
  %.not = icmp eq i64 %16, 1
  br i1 %.not, label %17, label %.loopexit

17:                                               ; preds = %.critedge.thread
  %18 = call i64 @fread(ptr noundef nonnull %7, i64 noundef 4, i64 noundef 1, ptr noundef %0)
  %.not27 = icmp eq i64 %18, 1
  br i1 %.not27, label %19, label %.loopexit

19:                                               ; preds = %17
  %20 = load i32, ptr %7, align 4
  %21 = load i32, ptr %6, align 4
  call void @_ZN2cv3Mat5zerosEiii(ptr dead_on_unwind nonnull writable sret(%"class.cv::MatExpr") align 8 %8, i32 noundef %20, i32 noundef %21, i32 noundef 13)
  %22 = load ptr, ptr %8, align 8
  %23 = load ptr, ptr %22, align 8
  %24 = getelementptr inbounds i8, ptr %23, i64 24
  %25 = load ptr, ptr %24, align 8
  invoke void %25(ptr noundef nonnull align 8 dereferenceable(8) %22, ptr noundef nonnull align 8 dereferenceable(352) %8, ptr noundef nonnull align 8 dereferenceable(96) %1, i32 noundef -1)
          to label %_ZN2cv3MataSERKNS_7MatExprE.exit unwind label %46

_ZN2cv3MataSERKNS_7MatExprE.exit:                 ; preds = %19
  %26 = getelementptr inbounds i8, ptr %8, i64 208
  call void @_ZN2cv3MatD1Ev(ptr noundef nonnull align 8 dereferenceable(96) %26) #13
  %27 = getelementptr inbounds i8, ptr %8, i64 112
  call void @_ZN2cv3MatD1Ev(ptr noundef nonnull align 8 dereferenceable(96) %27) #13
  %28 = getelementptr inbounds i8, ptr %8, i64 16
  call void @_ZN2cv3MatD1Ev(ptr noundef nonnull align 8 dereferenceable(96) %28) #13
  %29 = icmp sgt i32 %20, 0
  br i1 %29, label %.preheader.lr.ph, label %.loopexit

.preheader.lr.ph:                                 ; preds = %_ZN2cv3MataSERKNS_7MatExprE.exit
  %30 = icmp sgt i32 %21, 0
  %31 = getelementptr inbounds i8, ptr %9, i64 4
  %32 = getelementptr inbounds i8, ptr %1, i64 16
  %33 = getelementptr inbounds i8, ptr %1, i64 72
  br i1 %30, label %.preheader.us.preheader, label %.loopexit

.preheader.us.preheader:                          ; preds = %.preheader.lr.ph
  %wide.trip.count42 = zext nneg i32 %20 to i64
  %wide.trip.count = zext nneg i32 %21 to i64
  br label %.preheader.us

.preheader.us:                                    ; preds = %.preheader.us.preheader, %._crit_edge.us
  %indvars.iv39 = phi i64 [ 0, %.preheader.us.preheader ], [ %indvars.iv.next40, %._crit_edge.us ]
  br label %34

34:                                               ; preds = %.preheader.us, %38
  %indvars.iv = phi i64 [ 0, %.preheader.us ], [ %indvars.iv.next, %38 ]
  store i64 0, ptr %9, align 8
  %35 = call i64 @fread(ptr noundef nonnull %9, i64 noundef 4, i64 noundef 1, ptr noundef %0)
  %.not30.us = icmp eq i64 %35, 1
  br i1 %.not30.us, label %36, label %.loopexit

36:                                               ; preds = %34
  %37 = call i64 @fread(ptr noundef nonnull %31, i64 noundef 4, i64 noundef 1, ptr noundef %0)
  %.not31.us = icmp eq i64 %37, 1
  br i1 %.not31.us, label %38, label %.loopexit

38:                                               ; preds = %36
  %39 = load ptr, ptr %32, align 8
  %40 = load ptr, ptr %33, align 8
  %41 = load i64, ptr %40, align 8
  %42 = mul i64 %41, %indvars.iv39
  %43 = getelementptr inbounds i8, ptr %39, i64 %42
  %44 = getelementptr inbounds %"class.cv::Vec", ptr %43, i64 %indvars.iv
  %45 = load i64, ptr %9, align 8
  store i64 %45, ptr %44, align 4
  %indvars.iv.next = add nuw nsw i64 %indvars.iv, 1
  %exitcond.not = icmp eq i64 %indvars.iv.next, %wide.trip.count
  br i1 %exitcond.not, label %._crit_edge.us, label %34, !llvm.loop !10

._crit_edge.us:                                   ; preds = %38
  %indvars.iv.next40 = add nuw nsw i64 %indvars.iv39, 1
  %exitcond43.not = icmp eq i64 %indvars.iv.next40, %wide.trip.count42
  br i1 %exitcond43.not, label %.loopexit, label %.preheader.us, !llvm.loop !11

46:                                               ; preds = %19
  %47 = landingpad { ptr, i32 }
          cleanup
  call void @_ZN2cv7MatExprD2Ev(ptr noundef nonnull align 8 dereferenceable(352) %8) #13
  br label %48

.loopexit:                                        ; preds = %._crit_edge.us, %36, %34, %.preheader.lr.ph, %_ZN2cv3MataSERKNS_7MatExprE.exit, %.critedge.thread, %17, %.critedge
  %.025 = phi i1 [ false, %.critedge ], [ false, %17 ], [ false, %.critedge.thread ], [ true, %_ZN2cv3MataSERKNS_7MatExprE.exit ], [ true, %.preheader.lr.ph ], [ false, %34 ], [ false, %36 ], [ true, %._crit_edge.us ]
  ret i1 %.025

48:                                               ; preds = %14, %46
  %.pn28 = phi { ptr, i32 } [ %47, %46 ], [ %15, %14 ]
  resume { ptr, i32 } %.pn28
}